target datalayout = "e-m:e-p270:32:32-p271:32:32-p272:64:64-i64:64-i128:128-f80:128-n8:16:32:64-S128"
target triple = "x86_64-pc-linux-gnu"

%struct.strbuf = type { i64, i64, ptr }
%struct.bloom_filter_settings = type { i32, i32, i32, i32 }
%struct.packed_commit_list = type { ptr, i64, i64 }
%struct.write_commit_graph_context = type { ptr, ptr, ptr, %struct.oid_array, %struct.packed_commit_list, i32, i32, i64, ptr, i32, i64, ptr, i32, i32, ptr, ptr, ptr, i32, ptr, i8, ptr, ptr, i64, ptr, i32, i32, i32, i32, i32 }
%struct.oid_array = type { ptr, i64, i64, i32 }
%struct.bloom_filter = type { ptr, i64, i32, ptr }
%struct.json_writer = type { %struct.strbuf, %struct.strbuf, i8 }

@.str.48 = private unnamed_addr constant [15 x i8] c"commit-graph.c\00", align 1
@__const.trace2_bloom_filter_settings.jw = private unnamed_addr constant { %struct.strbuf, %struct.strbuf, i8, [7 x i8] } { %struct.strbuf { i64 0, i64 0, ptr @strbuf_slopbuf }, %struct.strbuf { i64 0, i64 0, ptr @strbuf_slopbuf }, i8 0, [7 x i8] zeroinitializer }, align 8
@.str.102 = private unnamed_addr constant [13 x i8] c"hash_version\00", align 1
@.str.103 = private unnamed_addr constant [11 x i8] c"num_hashes\00", align 1
@.str.104 = private unnamed_addr constant [15 x i8] c"bits_per_entry\00", align 1
@.str.105 = private unnamed_addr constant [18 x i8] c"max_changed_paths\00", align 1
@.str.106 = private unnamed_addr constant [6 x i8] c"bloom\00", align 1
@.str.107 = private unnamed_addr constant [9 x i8] c"settings\00", align 1

; Function Attrs: inlinehint nounwind uwtable
define internal i32 @default_swab32(i32 noundef %0) #5 {
  %2 = alloca i32, align 4
  store i32 %0, ptr %2, align 4, !tbaa !4
  %3 = load i32, ptr %2, align 4, !tbaa !4
  %4 = and i32 %3, -16777216
  %5 = lshr i32 %4, 24
  %6 = load i32, ptr %2, align 4, !tbaa !4
  %7 = and i32 %6, 16711680
  %8 = lshr i32 %7, 8
  %9 = or i32 %5, %8
  %10 = load i32, ptr %2, align 4, !tbaa !4
  %11 = and i32 %10, 65280
  %12 = shl i32 %11, 8
  %13 = or i32 %9, %12
  %14 = load i32, ptr %2, align 4, !tbaa !4
  %15 = and i32 %14, 255
  %16 = shl i32 %15, 24
  %17 = or i32 %13, %16
  ret i32 %17
}

; Function Attrs: inlinehint nounwind uwtable
define internal i32 @git_bswap32(i32 noundef %0) #5 {
  %2 = alloca i32, align 4
  %3 = alloca i32, align 4
  store i32 %0, ptr %2, align 4, !tbaa !4
  call void @llvm.lifetime.start.p0(i64 4, ptr %3) #12
  %4 = load i32, ptr %2, align 4, !tbaa !4
  %5 = call i1 @llvm.is.constant.i32(i32 %4)
  br i1 %5, label %6, label %9

6:                                                ; preds = %1
  %7 = load i32, ptr %2, align 4, !tbaa !4
  %8 = call i32 @default_swab32(i32 noundef %7)
  store i32 %8, ptr %3, align 4, !tbaa !4
  br label %12

9:                                                ; preds = %1
  %10 = load i32, ptr %2, align 4, !tbaa !4
  %11 = call i32 asm "bswap $0", "=r,0,~{dirflag},~{fpsr},~{flags}"(i32 %10) #16, !srcloc !315
  store i32 %11, ptr %3, align 4, !tbaa !4
  br label %12

12:                                               ; preds = %9, %6
  %13 = load i32, ptr %3, align 4, !tbaa !4
  call void @llvm.lifetime.end.p0(i64 4, ptr %3) #12
  ret i32 %13
}

; Function Attrs: inlinehint nounwind uwtable
define internal void @hashwrite_be32(ptr noundef %0, i32 noundef %1) #5 {
  %3 = alloca ptr, align 8
  %4 = alloca i32, align 4
  store ptr %0, ptr %3, align 8, !tbaa !282
  store i32 %1, ptr %4, align 4, !tbaa !4
  %5 = load i32, ptr %4, align 4, !tbaa !4
  %6 = call i32 @git_bswap32(i32 noundef %5)
  store i32 %6, ptr %4, align 4, !tbaa !4
  %7 = load ptr, ptr %3, align 8, !tbaa !282
  call void @hashwrite(ptr noundef %7, ptr noundef %4, i32 noundef 4)
  ret void
}

; Function Attrs: nounwind uwtable
define internal void @trace2_bloom_filter_settings(ptr noundef %0) #0 {
  %2 = alloca ptr, align 8
  %3 = alloca %struct.json_writer, align 8
  store ptr %0, ptr %2, align 8, !tbaa !197
  call void @llvm.lifetime.start.p0(i64 56, ptr %3) #12
  call void @llvm.memcpy.p0.p0.i64(ptr align 8 %3, ptr align 8 @__const.trace2_bloom_filter_settings.jw, i64 56, i1 false)
  call void @jw_object_begin(ptr noundef %3, i32 noundef 0)
  %4 = load ptr, ptr %2, align 8, !tbaa !197
  %5 = getelementptr inbounds nuw %struct.write_commit_graph_context, ptr %4, i32 0, i32 23
  %6 = load ptr, ptr %5, align 8, !tbaa !207
  %7 = getelementptr inbounds nuw %struct.bloom_filter_settings, ptr %6, i32 0, i32 0
  %8 = load i32, ptr %7, align 4, !tbaa !108
  %9 = zext i32 %8 to i64
  call void @jw_object_intmax(ptr noundef %3, ptr noundef @.str.102, i64 noundef %9)
  %10 = load ptr, ptr %2, align 8, !tbaa !197
  %11 = getelementptr inbounds nuw %struct.write_commit_graph_context, ptr %10, i32 0, i32 23
  %12 = load ptr, ptr %11, align 8, !tbaa !207
  %13 = getelementptr inbounds nuw %struct.bloom_filter_settings, ptr %12, i32 0, i32 1
  %14 = load i32, ptr %13, align 4, !tbaa !110
  %15 = zext i32 %14 to i64
  call void @jw_object_intmax(ptr noundef %3, ptr noundef @.str.103, i64 noundef %15)
  %16 = load ptr, ptr %2, align 8, !tbaa !197
  %17 = getelementptr inbounds nuw %struct.write_commit_graph_context, ptr %16, i32 0, i32 23
  %18 = load ptr, ptr %17, align 8, !tbaa !207
  %19 = getelementptr inbounds nuw %struct.bloom_filter_settings, ptr %18, i32 0, i32 2
  %20 = load i32, ptr %19, align 4, !tbaa !111
  %21 = zext i32 %20 to i64
  call void @jw_object_intmax(ptr noundef %3, ptr noundef @.str.104, i64 noundef %21)
  %22 = load ptr, ptr %2, align 8, !tbaa !197
  %23 = getelementptr inbounds nuw %struct.write_commit_graph_context, ptr %22, i32 0, i32 23
  %24 = load ptr, ptr %23, align 8, !tbaa !207
  %25 = getelementptr inbounds nuw %struct.bloom_filter_settings, ptr %24, i32 0, i32 3
  %26 = load i32, ptr %25, align 4, !tbaa !112
  %27 = zext i32 %26 to i64
  call void @jw_object_intmax(ptr noundef %3, ptr noundef @.str.105, i64 noundef %27)
  call void @jw_end(ptr noundef %3)
  %28 = load ptr, ptr %2, align 8, !tbaa !197
  %29 = getelementptr inbounds nuw %struct.write_commit_graph_context, ptr %28, i32 0, i32 0
  %30 = load ptr, ptr %29, align 8, !tbaa !199
  call void @trace2_data_json_fl(ptr noundef @.str.48, i32 noundef 1460, ptr noundef @.str.106, ptr noundef %30, ptr noundef @.str.107, ptr noundef %3)
  call void @jw_release(ptr noundef %3)
  call void @llvm.lifetime.end.p0(i64 56, ptr %3) #12
  ret void
}

; Function Attrs: nounwind uwtable
define internal i32 @write_graph_chunk_bloom_data(ptr noundef %0, ptr noundef %1) #0 {
  %3 = alloca ptr, align 8
  %4 = alloca ptr, align 8
  %5 = alloca ptr, align 8
  %6 = alloca ptr, align 8
  %7 = alloca ptr, align 8
  %8 = alloca ptr, align 8
  %9 = alloca i64, align 8
  store ptr %0, ptr %3, align 8, !tbaa !282
  store ptr %1, ptr %4, align 8, !tbaa !78
  call void @llvm.lifetime.start.p0(i64 8, ptr %5) #12
  %10 = load ptr, ptr %4, align 8, !tbaa !78
  store ptr %10, ptr %5, align 8, !tbaa !197
  call void @llvm.lifetime.start.p0(i64 8, ptr %6) #12
  %11 = load ptr, ptr %5, align 8, !tbaa !197
  %12 = getelementptr inbounds nuw %struct.write_commit_graph_context, ptr %11, i32 0, i32 4
  %13 = getelementptr inbounds nuw %struct.packed_commit_list, ptr %12, i32 0, i32 0
  %14 = load ptr, ptr %13, align 8, !tbaa !222
  store ptr %14, ptr %6, align 8, !tbaa !165
  call void @llvm.lifetime.start.p0(i64 8, ptr %7) #12
  %15 = load ptr, ptr %5, align 8, !tbaa !197
  %16 = getelementptr inbounds nuw %struct.write_commit_graph_context, ptr %15, i32 0, i32 4
  %17 = getelementptr inbounds nuw %struct.packed_commit_list, ptr %16, i32 0, i32 0
  %18 = load ptr, ptr %17, align 8, !tbaa !222
  %19 = load ptr, ptr %5, align 8, !tbaa !197
  %20 = getelementptr inbounds nuw %struct.write_commit_graph_context, ptr %19, i32 0, i32 4
  %21 = getelementptr inbounds nuw %struct.packed_commit_list, ptr %20, i32 0, i32 1
  %22 = load i64, ptr %21, align 8, !tbaa !218
  %23 = getelementptr inbounds nuw ptr, ptr %18, i64 %22
  store ptr %23, ptr %7, align 8, !tbaa !165
  %24 = load ptr, ptr %5, align 8, !tbaa !197
  call void @trace2_bloom_filter_settings(ptr noundef %24)
  %25 = load ptr, ptr %3, align 8, !tbaa !282
  %26 = load ptr, ptr %5, align 8, !tbaa !197
  %27 = getelementptr inbounds nuw %struct.write_commit_graph_context, ptr %26, i32 0, i32 23
  %28 = load ptr, ptr %27, align 8, !tbaa !207
  %29 = getelementptr inbounds nuw %struct.bloom_filter_settings, ptr %28, i32 0, i32 0
  %30 = load i32, ptr %29, align 4, !tbaa !108
  call void @hashwrite_be32(ptr noundef %25, i32 noundef %30)
  %31 = load ptr, ptr %3, align 8, !tbaa !282
  %32 = load ptr, ptr %5, align 8, !tbaa !197
  %33 = getelementptr inbounds nuw %struct.write_commit_graph_context, ptr %32, i32 0, i32 23
  %34 = load ptr, ptr %33, align 8, !tbaa !207
  %35 = getelementptr inbounds nuw %struct.bloom_filter_settings, ptr %34, i32 0, i32 1
  %36 = load i32, ptr %35, align 4, !tbaa !110
  call void @hashwrite_be32(ptr noundef %31, i32 noundef %36)
  %37 = load ptr, ptr %3, align 8, !tbaa !282
  %38 = load ptr, ptr %5, align 8, !tbaa !197
  %39 = getelementptr inbounds nuw %struct.write_commit_graph_context, ptr %38, i32 0, i32 23
  %40 = load ptr, ptr %39, align 8, !tbaa !207
  %41 = getelementptr inbounds nuw %struct.bloom_filter_settings, ptr %40, i32 0, i32 2
  %42 = load i32, ptr %41, align 4, !tbaa !111
  call void @hashwrite_be32(ptr noundef %37, i32 noundef %42)
  br label %43

43:                                               ; preds = %80, %2
  %44 = load ptr, ptr %6, align 8, !tbaa !165
  %45 = load ptr, ptr %7, align 8, !tbaa !165
  %46 = icmp ult ptr %44, %45
  br i1 %46, label %47, label %83

47:                                               ; preds = %43
  call void @llvm.lifetime.start.p0(i64 8, ptr %8) #12
  %48 = load ptr, ptr %5, align 8, !tbaa !197
  %49 = getelementptr inbounds nuw %struct.write_commit_graph_context, ptr %48, i32 0, i32 0
  %50 = load ptr, ptr %49, align 8, !tbaa !199
  %51 = load ptr, ptr %6, align 8, !tbaa !165
  %52 = load ptr, ptr %51, align 8, !tbaa !52
  %53 = call ptr @get_bloom_filter(ptr noundef %50, ptr noundef %52)
  store ptr %53, ptr %8, align 8, !tbaa !271
  call void @llvm.lifetime.start.p0(i64 8, ptr %9) #12
  %54 = load ptr, ptr %8, align 8, !tbaa !271
  %55 = icmp ne ptr %54, null
  br i1 %55, label %56, label %60

56:                                               ; preds = %47
  %57 = load ptr, ptr %8, align 8, !tbaa !271
  %58 = getelementptr inbounds nuw %struct.bloom_filter, ptr %57, i32 0, i32 1
  %59 = load i64, ptr %58, align 8, !tbaa !277
  br label %61

60:                                               ; preds = %47
  br label %61

61:                                               ; preds = %60, %56
  %62 = phi i64 [ %59, %56 ], [ 0, %60 ]
  store i64 %62, ptr %9, align 8, !tbaa !73
  %63 = load ptr, ptr %5, align 8, !tbaa !197
  %64 = getelementptr inbounds nuw %struct.write_commit_graph_context, ptr %63, i32 0, i32 8
  %65 = load ptr, ptr %64, align 8, !tbaa !242
  %66 = load ptr, ptr %5, align 8, !tbaa !197
  %67 = getelementptr inbounds nuw %struct.write_commit_graph_context, ptr %66, i32 0, i32 10
  %68 = load i64, ptr %67, align 8, !tbaa !365
  %69 = add i64 %68, 1
  store i64 %69, ptr %67, align 8, !tbaa !365
  call void @display_progress(ptr noundef %65, i64 noundef %69)
  %70 = load i64, ptr %9, align 8, !tbaa !73
  %71 = icmp ne i64 %70, 0
  br i1 %71, label %72, label %80

72:                                               ; preds = %61
  %73 = load ptr, ptr %3, align 8, !tbaa !282
  %74 = load ptr, ptr %8, align 8, !tbaa !271
  %75 = getelementptr inbounds nuw %struct.bloom_filter, ptr %74, i32 0, i32 0
  %76 = load ptr, ptr %75, align 8, !tbaa !377
  %77 = load i64, ptr %9, align 8, !tbaa !73
  %78 = mul i64 %77, 1
  %79 = trunc i64 %78 to i32
  call void @hashwrite(ptr noundef %73, ptr noundef %76, i32 noundef %79)
  br label %80

80:                                               ; preds = %72, %61
  %81 = load ptr, ptr %6, align 8, !tbaa !165
  %82 = getelementptr inbounds nuw ptr, ptr %81, i32 1
  store ptr %82, ptr %6, align 8, !tbaa !165
  call void @llvm.lifetime.end.p0(i64 8, ptr %9) #12
  call void @llvm.lifetime.end.p0(i64 8, ptr %8) #12
  br label %43, !llvm.loop !378

83:                                               ; preds = %43
  call void @llvm.lifetime.end.p0(i64 8, ptr %7) #12
  call void @llvm.lifetime.end.p0(i64 8, ptr %6) #12
  call void @llvm.lifetime.end.p0(i64 8, ptr %5) #12
  ret i32 0
}