; Function Attrs: nounwind uwtable
define internal noundef i32 @write_graph_chunk_bloom_data(ptr noundef %0, ptr noundef captures(none) %1) #0 {
hashwrite_be32.exit:
  %2 = alloca i32, align 4
  %3 = alloca i32, align 4
  %4 = alloca i32, align 4
  %5 = alloca %struct.json_writer, align 8
  %6 = getelementptr inbounds nuw i8, ptr %1, i64 56
  %7 = load ptr, ptr %6, align 8, !tbaa !224
  %8 = getelementptr inbounds nuw i8, ptr %1, i64 64
  %9 = load i64, ptr %8, align 8, !tbaa !222
  %10 = getelementptr inbounds nuw ptr, ptr %7, i64 %9
  call void @llvm.lifetime.start.p0(i64 56, ptr nonnull %5) #24
  call void @llvm.memcpy.p0.p0.i64(ptr noundef nonnull align 8 dereferenceable(56) %5, ptr noundef nonnull align 8 dereferenceable(56) @__const.trace2_bloom_filter_settings.jw, i64 56, i1 false)
  call void @jw_object_begin(ptr noundef nonnull %5, i32 noundef 0) #24
  %11 = getelementptr inbounds nuw i8, ptr %1, i64 208
  %12 = load ptr, ptr %11, align 8, !tbaa !187
  %13 = load i32, ptr %12, align 4, !tbaa !102
  %14 = zext i32 %13 to i64
  call void @jw_object_intmax(ptr noundef nonnull %5, ptr noundef nonnull @.str.102, i64 noundef %14) #24
  %15 = load ptr, ptr %11, align 8, !tbaa !187
  %16 = getelementptr inbounds nuw i8, ptr %15, i64 4
  %17 = load i32, ptr %16, align 4, !tbaa !104
  %18 = zext i32 %17 to i64
  call void @jw_object_intmax(ptr noundef nonnull %5, ptr noundef nonnull @.str.103, i64 noundef %18) #24
  %19 = load ptr, ptr %11, align 8, !tbaa !187
  %20 = getelementptr inbounds nuw i8, ptr %19, i64 8
  %21 = load i32, ptr %20, align 4, !tbaa !105
  %22 = zext i32 %21 to i64
  call void @jw_object_intmax(ptr noundef nonnull %5, ptr noundef nonnull @.str.104, i64 noundef %22) #24
  %23 = load ptr, ptr %11, align 8, !tbaa !187
  %24 = getelementptr inbounds nuw i8, ptr %23, i64 12
  %25 = load i32, ptr %24, align 4, !tbaa !106
  %26 = zext i32 %25 to i64
  call void @jw_object_intmax(ptr noundef nonnull %5, ptr noundef nonnull @.str.105, i64 noundef %26) #24
  call void @jw_end(ptr noundef nonnull %5) #24
  %27 = load ptr, ptr %1, align 8, !tbaa !178
  call void @trace2_data_json_fl(ptr noundef nonnull @.str.48, i32 noundef 1460, ptr noundef nonnull @.str.106, ptr noundef %27, ptr noundef nonnull @.str.107, ptr noundef nonnull %5) #24
  call void @jw_release(ptr noundef nonnull %5) #24
  call void @llvm.lifetime.end.p0(i64 56, ptr nonnull %5) #24
  %28 = load ptr, ptr %11, align 8, !tbaa !187
  %29 = load i32, ptr %28, align 4, !tbaa !102
  call void @llvm.lifetime.start.p0(i64 4, ptr nonnull %4)
  %30 = call i32 asm "bswap $0", "=r,0,~{dirflag},~{fpsr},~{flags}"(i32 %29) #26, !srcloc !96
  store i32 %30, ptr %4, align 4, !tbaa !47
  call void @hashwrite(ptr noundef %0, ptr noundef nonnull %4, i32 noundef 4) #24
  call void @llvm.lifetime.end.p0(i64 4, ptr nonnull %4)
  %31 = load ptr, ptr %11, align 8, !tbaa !187
  %32 = getelementptr inbounds nuw i8, ptr %31, i64 4
  %33 = load i32, ptr %32, align 4, !tbaa !104
  call void @llvm.lifetime.start.p0(i64 4, ptr nonnull %3)
  %34 = call i32 asm "bswap $0", "=r,0,~{dirflag},~{fpsr},~{flags}"(i32 %33) #26, !srcloc !96
  store i32 %34, ptr %3, align 4, !tbaa !47
  call void @hashwrite(ptr noundef %0, ptr noundef nonnull %3, i32 noundef 4) #24
  call void @llvm.lifetime.end.p0(i64 4, ptr nonnull %3)
  %35 = load ptr, ptr %11, align 8, !tbaa !187
  %36 = getelementptr inbounds nuw i8, ptr %35, i64 8
  %37 = load i32, ptr %36, align 4, !tbaa !105
  call void @llvm.lifetime.start.p0(i64 4, ptr nonnull %2)
  %38 = call i32 asm "bswap $0", "=r,0,~{dirflag},~{fpsr},~{flags}"(i32 %37) #26, !srcloc !96
  store i32 %38, ptr %2, align 4, !tbaa !47
  call void @hashwrite(ptr noundef %0, ptr noundef nonnull %2, i32 noundef 4) #24
  call void @llvm.lifetime.end.p0(i64 4, ptr nonnull %2)
  %.not31 = icmp eq i64 %9, 0
  br i1 %.not31, label %._crit_edge, label %.lr.ph

.lr.ph:                                           ; preds = %hashwrite_be32.exit
  %39 = getelementptr inbounds nuw i8, ptr %1, i64 96
  %40 = getelementptr inbounds nuw i8, ptr %1, i64 112
  br label %41

41:                                               ; preds = %.lr.ph, %56
  %.030 = phi ptr [ %7, %.lr.ph ], [ %57, %56 ]
  %42 = load ptr, ptr %1, align 8, !tbaa !178
  %43 = load ptr, ptr %.030, align 8, !tbaa !165
  %44 = call ptr @get_bloom_filter(ptr noundef %42, ptr noundef %43) #24
  %.not = icmp eq ptr %44, null
  br i1 %.not, label %48, label %45

45:                                               ; preds = %41
  %46 = getelementptr inbounds nuw i8, ptr %44, i64 8
  %47 = load i64, ptr %46, align 8, !tbaa !277
  br label %48

48:                                               ; preds = %41, %45
  %49 = phi i64 [ %47, %45 ], [ 0, %41 ]
  %50 = load ptr, ptr %39, align 8, !tbaa !203
  %51 = load i64, ptr %40, align 8, !tbaa !303
  %52 = add i64 %51, 1
  store i64 %52, ptr %40, align 8, !tbaa !303
  call void @display_progress(ptr noundef %50, i64 noundef %52) #24
  %.not25 = icmp eq i64 %49, 0
  br i1 %.not25, label %56, label %53

53:                                               ; preds = %48
  %54 = load ptr, ptr %44, align 8, !tbaa !316
  %55 = trunc i64 %49 to i32
  call void @hashwrite(ptr noundef %0, ptr noundef %54, i32 noundef %55) #24
  br label %56

56:                                               ; preds = %53, %48
  %57 = getelementptr inbounds nuw i8, ptr %.030, i64 8
  %58 = icmp ult ptr %57, %10
  br i1 %58, label %41, label %._crit_edge, !llvm.loop !317

._crit_edge:                                      ; preds = %56, %hashwrite_be32.exit
  ret i32 0
}